; Function Attrs: null_pointer_is_valid sspstrong uwtable
define internal i32 @dissect_h225_T_standard(ptr noundef %0, i32 noundef %1, ptr noundef %2, ptr noundef %3, i32 noundef %4) #0 {
  %6 = alloca i32, align 4
  call void @llvm.lifetime.start.p0(i64 4, ptr nonnull %6) #11
  store i32 -1, ptr %6, align 4
  %7 = call i32 @dissect_per_constrained_integer(ptr noundef %0, i32 noundef %1, ptr noundef %2, ptr noundef %3, i32 noundef %4, i32 noundef 0, i32 noundef 16383, ptr noundef nonnull %6, i1 noundef zeroext true)
  %8 = getelementptr inbounds nuw i8, ptr %2, i64 48
  %9 = load ptr, ptr %8, align 8
  %10 = call ptr @gef_ctx_get(ptr noundef %9)
  %.not = icmp eq ptr %10, null
  br i1 %.not, label %19, label %11

11:                                               ; preds = %5
  %12 = getelementptr inbounds nuw i8, ptr %2, i64 16
  %13 = load ptr, ptr %12, align 8
  %14 = getelementptr inbounds nuw i8, ptr %13, i64 408
  %15 = load ptr, ptr %14, align 8
  %16 = load i32, ptr %6, align 4
  %17 = call noalias ptr (ptr, ptr, ...) @wmem_strdup_printf(ptr noundef %15, ptr noundef nonnull @.str.1654, i32 noundef %16)
  %18 = getelementptr inbounds nuw i8, ptr %10, i64 24
  store ptr %17, ptr %18, align 8
  br label %19

19:                                               ; preds = %11, %5
  call void @llvm.lifetime.end.p0(i64 4, ptr nonnull %6) #11
  ret i32 %7
}